target datalayout = "e-m:e-p270:32:32-p271:32:32-p272:64:64-i64:64-i128:128-f80:128-n8:16:32:64-S128"
target triple = "x86_64-pc-linux-gnu"

; Function Attrs: nounwind uwtable
define ptr @av_strtok(ptr noundef %0, ptr noundef %1, ptr noundef %2) #0 {
  %4 = alloca ptr, align 8
  %5 = alloca ptr, align 8
  %6 = alloca ptr, align 8
  %7 = alloca ptr, align 8
  %8 = alloca ptr, align 8
  %9 = alloca i32, align 4
  store ptr %0, ptr %5, align 8, !tbaa !4
  store ptr %1, ptr %6, align 8, !tbaa !4
  store ptr %2, ptr %7, align 8, !tbaa !9
  call void @llvm.lifetime.start.p0(i64 8, ptr %8) #11
  %10 = load ptr, ptr %5, align 8, !tbaa !4
  %11 = icmp ne ptr %10, null
  br i1 %11, label %17, label %12

12:                                               ; preds = %3
  %13 = load ptr, ptr %7, align 8, !tbaa !9
  %14 = load ptr, ptr %13, align 8, !tbaa !4
  store ptr %14, ptr %5, align 8, !tbaa !4
  %15 = icmp ne ptr %14, null
  br i1 %15, label %17, label %16

16:                                               ; preds = %12
  store ptr null, ptr %4, align 8
  store i32 1, ptr %9, align 4
  br label %48

17:                                               ; preds = %12, %3
  %18 = load ptr, ptr %5, align 8, !tbaa !4
  %19 = load ptr, ptr %6, align 8, !tbaa !4
  %20 = call i64 @strspn(ptr noundef %18, ptr noundef %19) #12
  %21 = load ptr, ptr %5, align 8, !tbaa !4
  %22 = getelementptr inbounds nuw i8, ptr %21, i64 %20
  store ptr %22, ptr %5, align 8, !tbaa !4
  %23 = load ptr, ptr %5, align 8, !tbaa !4
  %24 = load i8, ptr %23, align 1, !tbaa !12
  %25 = icmp ne i8 %24, 0
  br i1 %25, label %28, label %26

26:                                               ; preds = %17
  %27 = load ptr, ptr %7, align 8, !tbaa !9
  store ptr null, ptr %27, align 8, !tbaa !4
  store ptr null, ptr %4, align 8
  store i32 1, ptr %9, align 4
  br label %48

28:                                               ; preds = %17
  %29 = load ptr, ptr %5, align 8, !tbaa !4
  %30 = getelementptr inbounds nuw i8, ptr %29, i32 1
  store ptr %30, ptr %5, align 8, !tbaa !4
  store ptr %29, ptr %8, align 8, !tbaa !4
  %31 = load ptr, ptr %5, align 8, !tbaa !4
  %32 = load ptr, ptr %6, align 8, !tbaa !4
  %33 = call i64 @strcspn(ptr noundef %31, ptr noundef %32) #12
  %34 = load ptr, ptr %5, align 8, !tbaa !4
  %35 = getelementptr inbounds nuw i8, ptr %34, i64 %33
  store ptr %35, ptr %5, align 8, !tbaa !4
  %36 = load ptr, ptr %5, align 8, !tbaa !4
  %37 = load i8, ptr %36, align 1, !tbaa !12
  %38 = icmp ne i8 %37, 0
  br i1 %38, label %39, label %44

39:                                               ; preds = %28
  %40 = load ptr, ptr %5, align 8, !tbaa !4
  store i8 0, ptr %40, align 1, !tbaa !12
  %41 = load ptr, ptr %5, align 8, !tbaa !4
  %42 = getelementptr inbounds i8, ptr %41, i64 1
  %43 = load ptr, ptr %7, align 8, !tbaa !9
  store ptr %42, ptr %43, align 8, !tbaa !4
  br label %46

44:                                               ; preds = %28
  %45 = load ptr, ptr %7, align 8, !tbaa !9
  store ptr null, ptr %45, align 8, !tbaa !4
  br label %46

46:                                               ; preds = %44, %39
  %47 = load ptr, ptr %8, align 8, !tbaa !4
  store ptr %47, ptr %4, align 8
  store i32 1, ptr %9, align 4
  br label %48

48:                                               ; preds = %46, %26, %16
  call void @llvm.lifetime.end.p0(i64 8, ptr %8) #11
  %49 = load ptr, ptr %4, align 8
  ret ptr %49
}