; Function Attrs: mustprogress nofree norecurse nounwind willreturn memory(readwrite, inaccessiblemem: none) uwtable
define noundef ptr @av_strtok(ptr noundef %0, ptr noundef readonly captures(none) %1, ptr noundef captures(none) %2) local_unnamed_addr #11 {
  %.not = icmp eq ptr %0, null
  br i1 %.not, label %4, label %6

4:                                                ; preds = %3
  %5 = load ptr, ptr %2, align 8, !tbaa !9
  %.not21 = icmp eq ptr %5, null
  br i1 %.not21, label %17, label %6

6:                                                ; preds = %4, %3
  %.018 = phi ptr [ %0, %3 ], [ %5, %4 ]
  %7 = tail call i64 @strspn(ptr noundef nonnull %.018, ptr noundef %1) #18
  %8 = getelementptr inbounds nuw i8, ptr %.018, i64 %7
  %9 = load i8, ptr %8, align 1, !tbaa !4
  %.not22 = icmp eq i8 %9, 0
  br i1 %.not22, label %.sink.split, label %10

10:                                               ; preds = %6
  %11 = getelementptr inbounds nuw i8, ptr %8, i64 1
  %12 = tail call i64 @strcspn(ptr noundef nonnull %11, ptr noundef %1) #18
  %13 = getelementptr inbounds nuw i8, ptr %11, i64 %12
  %14 = load i8, ptr %13, align 1, !tbaa !4
  %.not23 = icmp eq i8 %14, 0
  br i1 %.not23, label %.sink.split, label %15

15:                                               ; preds = %10
  store i8 0, ptr %13, align 1, !tbaa !4
  %16 = getelementptr inbounds nuw i8, ptr %13, i64 1
  br label %.sink.split

.sink.split:                                      ; preds = %15, %10, %6
  %storemerge.sink = phi ptr [ null, %6 ], [ %16, %15 ], [ null, %10 ]
  %.0.ph = phi ptr [ null, %6 ], [ %8, %15 ], [ %8, %10 ]
  store ptr %storemerge.sink, ptr %2, align 8, !tbaa !9
  br label %17

17:                                               ; preds = %.sink.split, %4
  %.0 = phi ptr [ null, %4 ], [ %.0.ph, %.sink.split ]
  ret ptr %.0
}